Certificate:
    Data:
        Version: 3 (0x2)
        Serial Number:
            88:4f:3c:be:5e:d5:9d:a0
        Signature Algorithm: sha256WithRSAEncryption
        Issuer: C=BR, ST=SP, O=Borges LTDA, OU=PKI, CN=Borges Issuing LTDA
        Validity
            Not Before: Sep 18 23:25:57 2024 GMT
            Not After : Sep 18 23:25:57 2025 GMT
        Subject: C=BR, ST=SC, L=Florian\xC3\x83\xC2\xB3polis, O=myClient, OU=PKI, CN=localhost/emailAddress=pki@home.lab
        Subject Public Key Info:
            Public Key Algorithm: rsaEncryption
                Public-Key: (2048 bit)
                Modulus:
                    00:97:31:b7:79:4a:fb:cd:75:4d:35:8b:57:f9:6d:
                    64:7a:1b:b1:82:1b:c1:ec:0b:ea:96:10:53:d6:7e:
                    06:56:d3:40:da:81:32:b0:14:b1:6c:89:fa:71:39:
                    94:50:ce:b0:3a:66:44:d8:91:8c:04:6b:14:09:b1:
                    ab:93:55:81:50:68:9a:de:dd:aa:49:79:3d:e6:a6:
                    99:e1:7e:21:8c:18:d2:02:57:af:66:98:7f:e0:ba:
                    03:37:7b:98:54:d7:84:67:4d:66:5c:25:ab:ba:08:
                    cb:5f:a1:86:1a:fa:eb:45:dd:1f:4e:f5:18:54:5c:
                    d1:03:56:d0:65:af:1b:cd:43:18:6a:ed:95:cf:d7:
                    ec:8c:c1:79:55:08:10:c5:cb:1c:aa:49:c1:2d:29:
                    c8:d7:8c:30:35:b9:32:0b:79:33:7b:a0:2d:fc:08:
                    b0:e3:1a:0b:80:36:dd:8d:a4:05:55:82:57:fc:00:
                    8e:f8:5f:0b:a1:89:84:82:30:25:b0:fd:dc:43:f3:
                    8c:6d:48:b0:32:a3:81:ba:6e:9a:64:02:06:d4:ba:
                    27:96:c2:cb:93:6f:11:63:23:1e:66:c0:1e:2d:82:
                    f0:67:ea:0c:77:35:62:46:83:a3:62:f8:ba:65:b0:
                    12:3a:25:e3:2f:68:9e:c0:8e:c0:95:08:4b:7b:7a:
                    2f:cb
                Exponent: 65537 (0x10001)
        X509v3 extensions:
            X509v3 Basic Constraints: 
                CA:FALSE
            X509v3 Subject Key Identifier: 
                AF:CE:8C:F1:1E:F6:80:BF:EC:07:0B:AA:D0:99:BE:5F:6B:3F:7F:8D
            X509v3 Authority Key Identifier: 
                29:C1:3D:0A:76:84:05:D7:48:58:61:5C:7C:E9:28:FF:8C:FE:C3:1D
            X509v3 Key Usage: critical
                Digital Signature, Non Repudiation, Key Encipherment
            X509v3 Extended Key Usage: 
                TLS Web Client Authentication, E-mail Protection
            X509v3 CRL Distribution Points: 
                Full Name:
                  URI:http://myCA/myIssuing.crl
            Authority Information Access: 
                CA Issuers - URI:http://myCA/myIssuing.cer
    Signature Algorithm: sha256WithRSAEncryption
    Signature Value:
        22:3c:73:22:28:c0:df:fc:14:53:f0:63:86:a8:95:cc:be:5c:
        71:82:8a:6a:34:5b:56:2b:cb:f8:bc:ea:a0:63:00:ff:c8:1a:
        37:98:8b:84:38:49:22:09:e7:77:d8:fd:e7:e0:9e:db:31:e0:
        d0:43:5e:f0:2f:d4:39:37:5f:10:df:a9:bf:a6:b9:21:e6:dc:
        0c:12:5c:74:1a:51:64:fc:87:f2:41:a2:39:fb:bd:4f:df:99:
        2c:30:13:ad:2a:bd:ac:2d:17:5a:d9:7c:6a:32:43:e3:d1:b6:
        f8:bc:31:e1:77:00:d0:a7:63:85:b8:f0:02:94:18:14:51:6f:
        3b:d7:dc:06:71:eb:33:be:d0:b2:98:69:45:68:eb:93:d2:99:
        c6:4c:79:67:2f:2a:dd:68:99:b2:38:81:81:12:1f:c0:71:aa:
        5d:56:a0:a5:4f:44:b7:a4:b1:82:84:79:e2:17:b4:65:1c:ad:
        dc:ce:1d:8b:39:10:34:ac:05:5a:c6:12:aa:0c:01:db:a4:41:
        00:20:9d:0d:de:37:0b:41:f5:8b:12:6f:95:88:02:66:66:c5:
        6a:42:42:31:ca:b8:65:d9:d8:12:7b:33:27:8b:e5:59:86:2a:
        bf:51:d0:fa:a7:c0:37:ea:37:0a:ba:e4:e5:d0:ca:44:3c:a8:
        f5:4b:4f:24
-----BEGIN CERTIFICATE-----
MIIESDCCAzCgAwIBAgIJAIhPPL5e1Z2gMA0GCSqGSIb3DQEBCwUAMFwxCzAJBgNV
BAYTAkJSMQswCQYDVQQIDAJTUDEUMBIGA1UECgwLQm9yZ2VzIExUREExDDAKBgNV
BAsMA1BLSTEcMBoGA1UEAwwTQm9yZ2VzIElzc3VpbmcgTFREQTAeFw0yNDA5MTgy
MzI1NTdaFw0yNTA5MTgyMzI1NTdaMIGHMQswCQYDVQQGEwJCUjELMAkGA1UECAwC
U0MxGTAXBgNVBAcMEEZsb3JpYW7Dg8KzcG9saXMxETAPBgNVBAoMCG15Q2xpZW50
MQwwCgYDVQQLDANQS0kxEjAQBgNVBAMMCWxvY2FsaG9zdDEbMBkGCSqGSIb3DQEJ
ARYMcGtpQGhvbWUubGFiMIIBIjANBgkqhkiG9w0BAQEFAAOCAQ8AMIIBCgKCAQEA
lzG3eUr7zXVNNYtX+W1kehuxghvB7AvqlhBT1n4GVtNA2oEysBSxbIn6cTmUUM6w
OmZE2JGMBGsUCbGrk1WBUGia3t2qSXk95qaZ4X4hjBjSAlevZph/4LoDN3uYVNeE
Z01mXCWrugjLX6GGGvrrRd0fTvUYVFzRA1bQZa8bzUMYau2Vz9fsjMF5VQgQxcsc
qknBLSnI14wwNbkyC3kze6At/Aiw4xoLgDbdjaQFVYJX/ACO+F8LoYmEgjAlsP3c
Q/OMbUiwMqOBum6aZAIG1LonlsLLk28RYyMeZsAeLYLwZ+oMdzViRoOjYvi6ZbAS
OiXjL2iewI7AlQhLe3ovywIDAQABo4HgMIHdMAkGA1UdEwQCMAAwHQYDVR0OBBYE
FK/OjPEe9oC/7AcLqtCZvl9rP3+NMB8GA1UdIwQYMBaAFCnBPQp2hAXXSFhhXHzp
KP+M/sMdMA4GA1UdDwEB/wQEAwIF4DAdBgNVHSUEFjAUBggrBgEFBQcDAgYIKwYB
BQUHAwQwKgYDVR0fBCMwITAfoB2gG4YZaHR0cDovL215Q0EvbXlJc3N1aW5nLmNy
bDA1BggrBgEFBQcBAQQpMCcwJQYIKwYBBQUHMAKGGWh0dHA6Ly9teUNBL215SXNz
dWluZy5jZXIwDQYJKoZIhvcNAQELBQADggEBACI8cyIowN/8FFPwY4aolcy+XHGC
imo0W1Yry/i86qBjAP/IGjeYi4Q4SSIJ53fY/efgntsx4NBDXvAv1Dk3XxDfqb+m
uSHm3AwSXHQaUWT8h/JBojn7vU/fmSwwE60qvawtF1rZfGoyQ+PRtvi8MeF3ANCn
Y4W48AKUGBRRbzvX3AZx6zO+0LKYaUVo65PSmcZMeWcvKt1ombI4gYESH8Bxql1W
oKVPRLeksYKEeeIXtGUcrdzOHYs5EDSsBVrGEqoMAdukQQAgnQ3eNwtB9YsSb5WI
AmZmxWpCQjHKuGXZ2BJ7MyeL5VmGKr9R0PqnwDfqNwq65OXQykQ8qPVLTyQ=
-----END CERTIFICATE-----
