Certificate:
    Data:
        Version: 3 (0x2)
        Serial Number:
            88:4f:3c:be:5e:d5:9d:9f
        Signature Algorithm: sha256WithRSAEncryption
        Issuer: C=BR, ST=SP, O=Borges LTDA, OU=PKI, CN=Borges Issuing LTDA
        Validity
            Not Before: Sep 18 23:17:01 2024 GMT
            Not After : Sep 18 23:17:01 2025 GMT
        Subject: C=BR, ST=SP, L=SP, O=Borges LTDAb, OU=PKI, CN=localhost/emailAddress=pki@home.lab
        Subject Public Key Info:
            Public Key Algorithm: rsaEncryption
                Public-Key: (2048 bit)
                Modulus:
                    00:b3:d5:ce:ab:2d:46:44:df:ab:d5:c5:cc:fa:55:
                    b3:00:c4:74:41:21:83:1e:a5:bb:5c:fc:c4:d8:43:
                    2c:e7:22:3c:71:6f:9a:0e:14:e1:3e:b6:42:91:b2:
                    7c:0a:23:8b:25:ed:73:59:c1:7e:ce:66:a0:2f:ef:
                    bb:3b:03:17:5b:d5:31:b8:56:ce:6d:9b:57:42:ac:
                    02:57:5d:b1:70:16:ee:71:01:73:ff:81:b8:e9:21:
                    d1:17:15:b4:6a:30:67:05:ea:6b:cc:26:5b:71:c5:
                    b7:8b:a9:fc:ff:76:8c:e2:b5:f0:99:3b:19:de:ff:
                    09:12:77:46:b5:8d:a4:df:74:32:6d:3f:a1:c1:3a:
                    57:d9:2a:bc:78:57:ad:1a:ce:27:a6:f2:66:5a:92:
                    a8:1f:18:98:cf:a0:5d:77:d6:4c:53:f9:b7:56:18:
                    a3:28:ac:a4:ca:0b:c7:8a:79:0f:20:32:a9:5f:88:
                    14:33:ac:2f:67:9f:0c:8f:29:cc:30:c6:f1:06:cc:
                    2d:ff:4b:e2:a3:f8:77:dc:c3:31:58:a3:95:78:a9:
                    d2:1c:56:e6:12:dd:ad:d1:f1:b0:e0:8b:59:6a:6f:
                    00:b2:aa:51:c0:40:4d:d4:d8:12:39:43:ab:b7:71:
                    6d:05:b8:8a:7d:35:56:b4:2b:b1:63:c5:86:07:36:
                    63:c9
                Exponent: 65537 (0x10001)
        X509v3 extensions:
            X509v3 Basic Constraints: 
                CA:FALSE
            X509v3 Subject Key Identifier: 
                0B:1C:C0:85:DE:8D:61:96:B2:3E:30:5E:49:91:48:E3:9E:2F:5B:40
            X509v3 Authority Key Identifier: 
                keyid:29:C1:3D:0A:76:84:05:D7:48:58:61:5C:7C:E9:28:FF:8C:FE:C3:1D
                DirName:/C=BR/ST=SP/L=Sanca/O=Borges LTDA/OU=PKI/CN=RootCA/emailAddress=pki@home.lab
                serial:5D:F4:EB:FC:47:CD:C7:B9
            X509v3 Key Usage: critical
                Digital Signature, Key Encipherment
            X509v3 Extended Key Usage: 
                TLS Web Server Authentication
            X509v3 CRL Distribution Points: 
                Full Name:
                  URI:http://myCA/myIssuing.crl
            Authority Information Access: 
                CA Issuers - URI:http://myCA/myIssuing.cer
    Signature Algorithm: sha256WithRSAEncryption
    Signature Value:
        71:88:68:73:8d:d6:89:fe:6b:1b:c7:09:03:cb:db:bd:e6:79:
        30:b9:0a:5f:66:6a:72:77:18:18:c7:29:99:06:a6:07:54:e9:
        6e:2e:17:c5:0e:d6:04:fb:67:7e:da:5e:fa:64:d1:29:0b:f0:
        82:9f:d6:f4:89:27:34:8d:3d:d9:a2:ff:f2:aa:83:02:c6:df:
        1e:ed:93:cb:7d:5e:fb:b9:dc:de:13:20:7d:52:33:f2:88:46:
        79:4d:17:96:86:0d:4c:f3:a7:0c:45:20:16:1c:0d:90:36:2b:
        ec:3a:23:eb:36:13:7e:cc:a0:4b:b1:f7:65:57:be:75:f5:32:
        c8:41:cf:02:69:73:ef:5a:af:b0:3d:0d:8e:4a:cc:58:7d:a3:
        ad:d3:ff:c4:5f:90:26:2f:43:a8:98:c8:76:a1:9c:b7:a5:af:
        9e:57:90:f7:da:38:29:ea:f7:97:cb:83:9c:68:f2:8f:23:b7:
        26:78:54:37:58:3d:2b:7a:4b:7e:46:6e:35:d7:93:d8:b5:4c:
        14:9c:91:19:24:96:03:20:22:5e:9d:83:ad:12:38:ee:9d:94:
        6e:fe:26:5a:b6:0c:bd:1e:be:16:b9:1c:4e:a4:be:81:fe:dd:
        26:fa:73:8c:cc:aa:7c:9f:72:12:ff:cc:ae:76:5e:ed:e8:b2:
        c4:70:a7:70
-----BEGIN CERTIFICATE-----
MIIExTCCA62gAwIBAgIJAIhPPL5e1Z2fMA0GCSqGSIb3DQEBCwUAMFwxCzAJBgNV
BAYTAkJSMQswCQYDVQQIDAJTUDEUMBIGA1UECgwLQm9yZ2VzIExUREExDDAKBgNV
BAsMA1BLSTEcMBoGA1UEAwwTQm9yZ2VzIElzc3VpbmcgTFREQTAeFw0yNDA5MTgy
MzE3MDFaFw0yNTA5MTgyMzE3MDFaMH0xCzAJBgNVBAYTAkJSMQswCQYDVQQIDAJT
UDELMAkGA1UEBwwCU1AxFTATBgNVBAoMDEJvcmdlcyBMVERBYjEMMAoGA1UECwwD
UEtJMRIwEAYDVQQDDAlsb2NhbGhvc3QxGzAZBgkqhkiG9w0BCQEWDHBraUBob21l
LmxhYjCCASIwDQYJKoZIhvcNAQEBBQADggEPADCCAQoCggEBALPVzqstRkTfq9XF
zPpVswDEdEEhgx6lu1z8xNhDLOciPHFvmg4U4T62QpGyfAojiyXtc1nBfs5moC/v
uzsDF1vVMbhWzm2bV0KsAlddsXAW7nEBc/+BuOkh0RcVtGowZwXqa8wmW3HFt4up
/P92jOK18Jk7Gd7/CRJ3RrWNpN90Mm0/ocE6V9kqvHhXrRrOJ6byZlqSqB8YmM+g
XXfWTFP5t1YYoyispMoLx4p5DyAyqV+IFDOsL2efDI8pzDDG8QbMLf9L4qP4d9zD
MVijlXip0hxW5hLdrdHxsOCLWWpvALKqUcBATdTYEjlDq7dxbQW4in01VrQrsWPF
hgc2Y8kCAwEAAaOCAWcwggFjMAkGA1UdEwQCMAAwHQYDVR0OBBYEFAscwIXejWGW
sj4wXkmRSOOeL1tAMIGuBgNVHSMEgaYwgaOAFCnBPQp2hAXXSFhhXHzpKP+M/sMd
oYGApH4wfDELMAkGA1UEBhMCQlIxCzAJBgNVBAgMAlNQMQ4wDAYDVQQHDAVTYW5j
YTEUMBIGA1UECgwLQm9yZ2VzIExUREExDDAKBgNVBAsMA1BLSTEPMA0GA1UEAwwG
Um9vdENBMRswGQYJKoZIhvcNAQkBFgxwa2lAaG9tZS5sYWKCCF306/xHzce5MA4G
A1UdDwEB/wQEAwIFoDATBgNVHSUEDDAKBggrBgEFBQcDATAqBgNVHR8EIzAhMB+g
HaAbhhlodHRwOi8vbXlDQS9teUlzc3VpbmcuY3JsMDUGCCsGAQUFBwEBBCkwJzAl
BggrBgEFBQcwAoYZaHR0cDovL215Q0EvbXlJc3N1aW5nLmNlcjANBgkqhkiG9w0B
AQsFAAOCAQEAcYhoc43Wif5rG8cJA8vbveZ5MLkKX2ZqcncYGMcpmQamB1Tpbi4X
xQ7WBPtnftpe+mTRKQvwgp/W9IknNI092aL/8qqDAsbfHu2Ty31e+7nc3hMgfVIz
8ohGeU0XloYNTPOnDEUgFhwNkDYr7Doj6zYTfsygS7H3ZVe+dfUyyEHPAmlz71qv
sD0NjkrMWH2jrdP/xF+QJi9DqJjIdqGct6WvnleQ99o4Ker3l8uDnGjyjyO3JnhU
N1g9K3pLfkZuNdeT2LVMFJyRGSSWAyAiXp2DrRI47p2Ubv4mWrYMvR6+FrkcTqS+
gf7dJvpzjMyqfJ9yEv/MrnZe7eiyxHCncA==
-----END CERTIFICATE-----
